(lp1
(lp2
I8
aI0
aI0
aa(lp3
I4
aI0
aI0
aa(lp4
I9
aI0
aI0
aa(lp5
I6
aI0
aI0
aa(lp6
I3
aI0
aI0
aa(lp7
I0
aI0
aI0
aa(lp8
I3
aI0
aI0
aa(lp9
I9
aI0
aI0
aa(lp10
I5
aI0
aI0
aa(lp11
I4
aI0
aI0
aa(lp12
I5
aI0
aI0
aa(lp13
I6
aI0
aI0
aa(lp14
I8
aI0
aI0
aa(lp15
I0
aI0
aI0
aa(lp16
I10
aI0
aI0
aa(lp17
I8
aI0
aI0
aa(lp18
I4
aI0
aI0
aa(lp19
I8
aI0
aI0
aa(lp20
I10
aI0
aI0
aa(lp21
I3
aI0
aI0
aa(lp22
I5
aI0
aI0
aa(lp23
I2
aI0
aI0
aa(lp24
I8
aI0
aI0
aa(lp25
I10
aI0
aI0
aa(lp26
I6
aI0
aI0
aa(lp27
I6
aI0
aI0
aa(lp28
I0
aI0
aI0
aa(lp29
I2
aI0
aI0
aa(lp30
I7
aI0
aI0
aa(lp31
I0
aI0
aI0
aa(lp32
I3
aI0
aI0
aa(lp33
I4
aI0
aI0
aa(lp34
I6
aI0
aI0
aa(lp35
I9
aI0
aI0
aa(lp36
I2
aI0
aI0
aa(lp37
I8
aI0
aI0
aa(lp38
I0
aI0
aI0
aa(lp39
I9
aI0
aI0
aa(lp40
I6
aI0
aI0
aa(lp41
I4
aI0
aI0
aa(lp42
I7
aI0
aI0
aa(lp43
I8
aI0
aI0
aa(lp44
I6
aI0
aI0
aa(lp45
I3
aI0
aI0
aa(lp46
I5
aI0
aI0
aa(lp47
I9
aI0
aI0
aa(lp48
I7
aI0
aI0
aa(lp49
I5
aI0
aI0
aa(lp50
I7
aI0
aI0
aa(lp51
I8
aI0
aI0
aa(lp52
I6
aI0
aI0
aa(lp53
I8
aI0
aI0
aa(lp54
I4
aI0
aI0
aa(lp55
I8
aI0
aI0
aa(lp56
I4
aI0
aI0
aa(lp57
I2
aI0
aI0
aa(lp58
I4
aI0
aI0
aa(lp59
I5
aI0
aI0
aa(lp60
I6
aI0
aI0
aa(lp61
I7
aI0
aI0
aa(lp62
I0
aI0
aI0
aa(lp63
I9
aI0
aI0
aa(lp64
I9
aI0
aI0
aa(lp65
I7
aI0
aI0
aa(lp66
I2
aI0
aI0
aa(lp67
I5
aI0
aI0
aa(lp68
I2
aI0
aI0
aa(lp69
I4
aI0
aI0
aa(lp70
I4
aI0
aI0
aa(lp71
I4
aI0
aI0
aa(lp72
I6
aI0
aI0
aa(lp73
I6
aI0
aI0
aa(lp74
I5
aI0
aI0
aa(lp75
I2
aI0
aI0
aa(lp76
I6
aI0
aI0
aa(lp77
I0
aI0
aI0
aa(lp78
I6
aI0
aI0
aa(lp79
I6
aI0
aI0
aa(lp80
I3
aI0
aI0
aa(lp81
I11
aI0
aI0
aa(lp82
I4
aI0
aI0
aa(lp83
I7
aI0
aI0
aa(lp84
I8
aI0
aI0
aa(lp85
I7
aI0
aI0
aa(lp86
I4
aI0
aI0
aa(lp87
I8
aI0
aI0
aa(lp88
I7
aI0
aI0
aa(lp89
I8
aI0
aI0
aa(lp90
I2
aI0
aI0
aa.