(lp1
(lp2
I2
aI0
aI0
aa(lp3
I10
aI0
aI0
aa(lp4
I3
aI0
aI0
aa(lp5
I14
aI0
aI0
aa(lp6
I12
aI0
aI0
aa(lp7
I15
aI0
aI0
aa(lp8
I10
aI0
aI0
aa(lp9
I2
aI0
aI0
aa(lp10
I7
aI0
aI0
aa(lp11
I8
aI0
aI0
aa(lp12
I4
aI0
aI0
aa(lp13
I10
aI0
aI0
aa(lp14
I6
aI0
aI0
aa(lp15
I14
aI0
aI0
aa(lp16
I12
aI0
aI0
aa(lp17
I10
aI0
aI0
aa(lp18
I0
aI0
aI0
aa(lp19
I13
aI0
aI0
aa(lp20
I3
aI0
aI0
aa(lp21
I8
aI0
aI0
aa(lp22
I6
aI0
aI0
aa(lp23
I8
aI0
aI0
aa(lp24
I13
aI0
aI0
aa(lp25
I9
aI0
aI0
aa(lp26
I5
aI0
aI0
aa(lp27
I10
aI0
aI0
aa(lp28
I9
aI0
aI0
aa(lp29
I6
aI0
aI0
aa(lp30
I4
aI0
aI0
aa(lp31
I6
aI0
aI0
aa(lp32
I8
aI0
aI0
aa(lp33
I4
aI0
aI0
aa(lp34
I8
aI0
aI0
aa(lp35
I12
aI0
aI0
aa(lp36
I4
aI0
aI0
aa(lp37
I12
aI0
aI0
aa(lp38
I8
aI0
aI0
aa(lp39
I11
aI0
aI0
aa(lp40
I16
aI0
aI0
aa(lp41
I12
aI0
aI0
aa(lp42
I7
aI0
aI0
aa(lp43
I5
aI0
aI0
aa(lp44
I9
aI0
aI0
aa(lp45
I6
aI0
aI0
aa(lp46
I7
aI0
aI0
aa(lp47
I7
aI0
aI0
aa(lp48
I8
aI0
aI0
aa(lp49
I8
aI0
aI0
aa(lp50
I11
aI0
aI0
aa(lp51
I5
aI0
aI0
aa(lp52
I7
aI0
aI0
aa(lp53
I8
aI0
aI0
aa(lp54
I10
aI0
aI0
aa(lp55
I9
aI0
aI0
aa(lp56
I4
aI0
aI0
aa(lp57
I5
aI0
aI0
aa(lp58
I16
aI0
aI0
aa(lp59
I9
aI0
aI0
aa(lp60
I12
aI0
aI0
aa(lp61
I11
aI0
aI0
aa(lp62
I11
aI0
aI0
aa(lp63
I8
aI0
aI0
aa(lp64
I12
aI0
aI0
aa(lp65
I13
aI0
aI0
aa(lp66
I8
aI0
aI0
aa(lp67
I10
aI0
aI0
aa(lp68
I10
aI0
aI0
aa(lp69
I6
aI0
aI0
aa(lp70
I10
aI0
aI0
aa(lp71
I6
aI0
aI0
aa(lp72
I10
aI0
aI0
aa(lp73
I14
aI0
aI0
aa(lp74
I7
aI0
aI0
aa(lp75
I12
aI0
aI0
aa(lp76
I6
aI0
aI0
aa(lp77
I4
aI0
aI0
aa(lp78
I16
aI0
aI0
aa(lp79
I6
aI0
aI0
aa(lp80
I13
aI0
aI0
aa(lp81
I16
aI0
aI0
aa(lp82
I8
aI0
aI0
aa(lp83
I10
aI0
aI0
aa(lp84
I8
aI0
aI0
aa(lp85
I0
aI0
aI0
aa(lp86
I8
aI0
aI0
aa(lp87
I6
aI0
aI0
aa(lp88
I9
aI0
aI0
aa(lp89
I14
aI0
aI0
aa(lp90
I17
aI0
aI0
aa.